target datalayout = "e-m:e-p270:32:32-p271:32:32-p272:64:64-i64:64-i128:128-f80:128-n8:16:32:64-S128"
target triple = "x86_64-pc-linux-gnu"

%"class.clang::threadSafety::SExprBuilder" = type { %"class.clang::threadSafety::til::MemRegionRef", ptr, ptr, %"class.llvm::DenseMap", %"class.llvm::DenseMap.6", %"class.std::vector", %"class.std::vector.12", %"class.clang::threadSafety::CopyOnWriteVector", %"class.std::vector.17", %"class.std::vector.22", %"class.std::vector.17", ptr, ptr }
%"class.clang::threadSafety::til::MemRegionRef" = type { ptr }
%"class.llvm::DenseMap" = type <{ ptr, i32, i32, i32, [4 x i8] }>
%"class.llvm::DenseMap.6" = type <{ ptr, i32, i32, i32, [4 x i8] }>
%"class.std::vector" = type { %"struct.std::_Vector_base" }
%"struct.std::_Vector_base" = type { %"struct.std::_Vector_base<clang::threadSafety::til::BasicBlock *, std::allocator<clang::threadSafety::til::BasicBlock *>>::_Vector_impl" }
%"struct.std::_Vector_base<clang::threadSafety::til::BasicBlock *, std::allocator<clang::threadSafety::til::BasicBlock *>>::_Vector_impl" = type { %"struct.std::_Vector_base<clang::threadSafety::til::BasicBlock *, std::allocator<clang::threadSafety::til::BasicBlock *>>::_Vector_impl_data" }
%"struct.std::_Vector_base<clang::threadSafety::til::BasicBlock *, std::allocator<clang::threadSafety::til::BasicBlock *>>::_Vector_impl_data" = type { ptr, ptr, ptr }
%"class.std::vector.12" = type { %"struct.std::_Vector_base.13" }
%"struct.std::_Vector_base.13" = type { %"struct.std::_Vector_base<clang::threadSafety::SExprBuilder::BlockInfo, std::allocator<clang::threadSafety::SExprBuilder::BlockInfo>>::_Vector_impl" }
%"struct.std::_Vector_base<clang::threadSafety::SExprBuilder::BlockInfo, std::allocator<clang::threadSafety::SExprBuilder::BlockInfo>>::_Vector_impl" = type { %"struct.std::_Vector_base<clang::threadSafety::SExprBuilder::BlockInfo, std::allocator<clang::threadSafety::SExprBuilder::BlockInfo>>::_Vector_impl_data" }
%"struct.std::_Vector_base<clang::threadSafety::SExprBuilder::BlockInfo, std::allocator<clang::threadSafety::SExprBuilder::BlockInfo>>::_Vector_impl_data" = type { ptr, ptr, ptr }
%"class.clang::threadSafety::CopyOnWriteVector" = type { ptr }
%"class.std::vector.22" = type { %"struct.std::_Vector_base.23" }
%"struct.std::_Vector_base.23" = type { %"struct.std::_Vector_base<clang::threadSafety::til::SExpr *, std::allocator<clang::threadSafety::til::SExpr *>>::_Vector_impl" }
%"struct.std::_Vector_base<clang::threadSafety::til::SExpr *, std::allocator<clang::threadSafety::til::SExpr *>>::_Vector_impl" = type { %"struct.std::_Vector_base<clang::threadSafety::til::SExpr *, std::allocator<clang::threadSafety::til::SExpr *>>::_Vector_impl_data" }
%"struct.std::_Vector_base<clang::threadSafety::til::SExpr *, std::allocator<clang::threadSafety::til::SExpr *>>::_Vector_impl_data" = type { ptr, ptr, ptr }
%"class.std::vector.17" = type { %"struct.std::_Vector_base.18" }
%"struct.std::_Vector_base.18" = type { %"struct.std::_Vector_base<clang::threadSafety::til::Phi *, std::allocator<clang::threadSafety::til::Phi *>>::_Vector_impl" }
%"struct.std::_Vector_base<clang::threadSafety::til::Phi *, std::allocator<clang::threadSafety::til::Phi *>>::_Vector_impl" = type { %"struct.std::_Vector_base<clang::threadSafety::til::Phi *, std::allocator<clang::threadSafety::til::Phi *>>::_Vector_impl_data" }
%"struct.std::_Vector_base<clang::threadSafety::til::Phi *, std::allocator<clang::threadSafety::til::Phi *>>::_Vector_impl_data" = type { ptr, ptr, ptr }
%"struct.clang::threadSafety::SExprBuilder::BlockInfo" = type <{ %"class.clang::threadSafety::CopyOnWriteVector", i8, [3 x i8], i32, i32, [4 x i8] }>

; Function Attrs: mustprogress nounwind uwtable
define dso_local void @_ZN5clang12threadSafety12SExprBuilder15handleSuccessorEPKNS_8CFGBlockE(ptr noundef nonnull align 8 dereferenceable(216) %0, ptr noundef %1) #0 align 2 {
  %3 = alloca ptr, align 8
  %4 = alloca ptr, align 8
  store ptr %0, ptr %3, align 8
  store ptr %1, ptr %4, align 8
  %5 = load ptr, ptr %3, align 8
  %6 = getelementptr inbounds nuw %"class.clang::threadSafety::SExprBuilder", ptr %5, i32 0, i32 12
  %7 = load ptr, ptr %6, align 8
  %8 = getelementptr inbounds nuw %"struct.clang::threadSafety::SExprBuilder::BlockInfo", ptr %7, i32 0, i32 3
  %9 = load i32, ptr %8, align 4
  %10 = add i32 %9, 1
  store i32 %10, ptr %8, align 4
  ret void
}